; Function Attrs: nounwind uwtable
define hidden void @Wayland_DisplayInitTabletManager(ptr noundef readonly captures(address) %0) local_unnamed_addr #0 {
  %2 = getelementptr inbounds nuw i8, ptr %0, i64 248
  %3 = getelementptr inbounds nuw i8, ptr %0, i64 256
  %.pn6 = load ptr, ptr %3, align 8
  %.not7 = icmp eq ptr %.pn6, %2
  br i1 %.not7, label %._crit_edge, label %.lr.ph

.lr.ph:                                           ; preds = %1, %.lr.ph
  %.pn8 = phi ptr [ %.pn, %.lr.ph ], [ %.pn6, %1 ]
  %.0 = getelementptr inbounds i8, ptr %.pn8, i64 -40
  %4 = load ptr, ptr @WAYLAND_wl_list_init, align 8
  %5 = getelementptr inbounds nuw i8, ptr %.pn8, i64 480
  %6 = getelementptr inbounds nuw i8, ptr %.pn8, i64 488
  tail call void %4(ptr noundef nonnull %6) #12
  %7 = load ptr, ptr %.0, align 8
  %8 = getelementptr inbounds nuw i8, ptr %7, i64 232
  %9 = load ptr, ptr %8, align 8
  %10 = getelementptr inbounds i8, ptr %.pn8, i64 -32
  %11 = load ptr, ptr %10, align 8
  %12 = load ptr, ptr @WAYLAND_wl_proxy_marshal_flags, align 8
  %13 = load ptr, ptr @WAYLAND_wl_proxy_get_version, align 8
  %14 = tail call i32 %13(ptr noundef %9) #12
  %15 = tail call ptr (ptr, i32, ptr, i32, i32, ...) %12(ptr noundef %9, i32 noundef 0, ptr noundef nonnull @zwp_tablet_seat_v2_interface, i32 noundef %14, i32 noundef 0, ptr noundef null, ptr noundef %11) #12
  store ptr %15, ptr %5, align 8
  %16 = load ptr, ptr @WAYLAND_wl_proxy_add_listener, align 8
  %17 = tail call i32 %16(ptr noundef %15, ptr noundef nonnull @tablet_seat_listener, ptr noundef nonnull %.0) #12
  %18 = getelementptr inbounds nuw i8, ptr %.pn8, i64 8
  %.pn = load ptr, ptr %18, align 8
  %.not = icmp eq ptr %.pn, %2
  br i1 %.not, label %._crit_edge, label %.lr.ph, !llvm.loop !15

._crit_edge:                                      ; preds = %.lr.ph, %1
  ret void
}